; Function Attrs: nounwind uwtable
define hidden range(i32 -16, 1) i32 @mbedtls_mpi_lset(ptr noundef captures(none) %0, i64 noundef %1) local_unnamed_addr #0 {
  %3 = getelementptr inbounds nuw i8, ptr %0, i64 10
  %4 = load i16, ptr %3, align 2, !tbaa !3
  %5 = icmp eq i16 %4, 0
  br i1 %5, label %8, label %._crit_edge

._crit_edge:                                      ; preds = %2
  %.pre = load ptr, ptr %0, align 8, !tbaa !12
  %6 = zext i16 %4 to i64
  %7 = shl nuw nsw i64 %6, 3
  br label %15

8:                                                ; preds = %2
  %9 = tail call noalias dereferenceable_or_null(8) ptr @calloc(i64 noundef 1, i64 noundef 8) #17
  %10 = icmp eq ptr %9, null
  br i1 %10, label %mbedtls_mpi_grow.exit, label %11

11:                                               ; preds = %8
  %12 = load ptr, ptr %0, align 8, !tbaa !12
  %.not.i = icmp eq ptr %12, null
  br i1 %.not.i, label %14, label %13

13:                                               ; preds = %11
  tail call void @mbedtls_zeroize_and_free(ptr noundef nonnull %12, i64 noundef 0) #16
  br label %14

14:                                               ; preds = %13, %11
  store i16 1, ptr %3, align 2, !tbaa !3
  store ptr %9, ptr %0, align 8, !tbaa !12
  br label %15

15:                                               ; preds = %._crit_edge, %14
  %16 = phi i64 [ %7, %._crit_edge ], [ 8, %14 ]
  %17 = phi ptr [ %.pre, %._crit_edge ], [ %9, %14 ]
  tail call void @llvm.memset.p0.i64(ptr align 8 %17, i8 0, i64 %16, i1 false)
  %.0.i7 = tail call noundef range(i64 0, -9223372036854775807) i64 @llvm.abs.i64(i64 %1, i1 false)
  %18 = load ptr, ptr %0, align 8, !tbaa !12
  store i64 %.0.i7, ptr %18, align 8, !tbaa !17
  %19 = ashr i64 %1, 62
  %20 = trunc nsw i64 %19 to i16
  %21 = or i16 %20, 1
  %22 = getelementptr inbounds nuw i8, ptr %0, i64 8
  store i16 %21, ptr %22, align 8, !tbaa !10
  br label %mbedtls_mpi_grow.exit

mbedtls_mpi_grow.exit:                            ; preds = %8, %15
  %.0.i10 = phi i32 [ 0, %15 ], [ -16, %8 ]
  ret i32 %.0.i10
}